((lp0
V\u0924
p1
aV\u0930
p2
aV\u0915
p3
aV\u0928
p4
aV\u0935
p5
aV\u0938
p6
aV\u0905
p7
aV\u0932
p8
aV\u092a
p9
aV\u0906
p10
aV\u0915\u093e
p11
aV\u092e
p12
aV\u091a\u094d\u092f\u093e
p13
aV\u0924\u093e
p14
aV\u0932\u0947
p15
aV\u0935\u093e
p16
aV\u0932\u093e
p17
aV\u0924\u0940
p18
aV\u092f\u093e
p19
aV\u0935\u093f
p20
aV\u0938\u093e
p21
aV\u0930\u093e
p22
aV\u0928\u093e
p23
aV\u0917
p24
aV\u092e\u093e
p25
aV\u092a\u094d\u0930
p26
aV\u092f
p27
aV\u0924\u0947
p28
aV\u0923
p29
aV\u091a\u093e
p30
aV\u091a\u0947
p31
aV\u0928\u0947
p32
aV\u0939\u0947
p33
aV\u091c
p34
aV\u091a
p35
aV\u0926
p36
aV\u091a\u0940
p37
aV\u092a\u093e
p38
aV\u0909
p39
aV\u092c
p40
aV\u0939\u0940
p41
aV\u0928\u093f
p42
aV\u0924\u094d\u092f\u093e
p43
aV\u0932\u0940
p44
aV\u0939\u094b
p45
aV\u0921
p46
aV\u0938\u0902
p47
aV\u0930\u0940
p48
aV\u0933
p49
aV\u091f
p50
aV\u0923\u093e
p51
aV\u0936
p52
aV\u0939\u093e
p53
aV\u0939
p54
a(lp55
g1
ag2
ag3
ag4
ag5
ag6
ag7
ag8
ag9
ag10
ag11
ag12
ag13
ag14
ag15
ag16
ag17
ag18
ag19
ag20
ag21
ag22
ag23
ag24
ag25
ag26
ag27
ag28
ag29
ag30
ag31
ag32
ag33
ag34
ag35
ag36
ag37
ag38
ag39
ag40
ag41
ag42
ag43
ag44
ag45
ag46
ag47
ag48
ag49
ag50
ag51
ag52
ag53
ag54
aV\u0932\u094d\u092f\u093e
p56
aV\u091c\u093e
p57
aV\u0915\u0947
p58
aV\u0923\u094d\u092f\u093e
p59
aV\u092d\u093e
p60
aV\u092e\u0941
p61
aV\u090f
p62
aV\u0928\u0940
p63
aV\u0907
p64
aV\u0926\u093e
p65
aV\u0936\u093e
p66
aV\u0924\u094b
p67
a(lp68
g1
ag2
ag3
ag4
ag5
ag6
ag7
ag8
ag9
ag10
ag11
ag12
ag13
ag14
ag15
ag16
ag17
ag18
ag19
ag20
ag21
ag22
ag23
ag24
ag25
ag26
ag27
ag28
ag29
ag30
ag31
ag32
ag33
ag34
ag35
ag36
ag37
ag38
ag39
ag40
ag41
ag42
ag43
ag44
ag45
ag46
ag47
ag48
ag49
ag50
ag51
ag52
ag53
ag54
ag56
ag57
ag58
ag59
ag60
ag61
ag62
ag63
ag64
ag65
ag66
ag67
aV\u092f\u093e\u0902
p69
aV\u0923\u093f
p70
aV\u092f\u0947
p71
aV\u0938\u0942
p72
aV\u0930\u0942
p73
aV\u0927
p74
aV\u0930\u093f
p75
aV\u0938\u0947
p76
aV\u0926\u0947
p77
aV\u092e\u093f
p78
aV\u0917\u093e
p79
aV\u0916
p80
aV\u0930\u0947
p81
aV\u0923\u0947
p82
aV\u0924\u094d\u092f\u093e\u0902
p83
aV\u0935\u0947
p84
aV\u0924\u093f
p85
a(lp86
g1
ag2
ag3
ag4
ag5
ag6
ag7
ag8
ag9
ag10
ag11
ag12
ag13
ag14
ag15
ag16
ag17
ag18
ag19
ag20
ag21
ag22
ag23
ag24
ag25
ag26
ag27
ag28
ag29
ag30
ag31
ag32
ag33
ag34
ag35
ag36
ag37
ag38
ag39
ag40
ag41
ag42
ag43
ag44
ag45
ag46
ag47
ag48
ag49
ag50
ag51
ag52
ag53
ag54
ag56
ag57
ag58
ag59
ag60
ag61
ag62
ag63
ag64
ag65
ag66
ag67
ag69
ag70
ag71
ag72
ag73
ag74
ag75
ag76
ag77
ag78
ag79
ag80
ag81
ag82
aV\u0936\u093f
p87
ag83
ag84
aV\u091d\u093e
p88
ag85
aV\u0927\u094d\u092f\u0947
p89
aV\u092a\u0941
p90
aV\u092c\u093e
p91
aV\u0915\u094d\u0937
p92
aV\u092e\u0940
p93
aV\u0939\u093f
p94
aV\u0933\u0947
p95
aV\u0938\u0941
p96
aV\u0922
p97
aV\u0927\u093e
p98
aV\u0924\u094d\u0930
p99
aV\u092e\u094d\u0939
p100
aV\u0936\u0940
p101
aV\u0926\u093f
p102
aV\u0915\u0940
p103
aV\u0920\u0940
p104
aV\u0915\u094b
p105
aV\u0918
p106
aV\u0937
p107
a(lp108
g1
ag2
ag3
ag4
ag5
ag6
ag7
ag8
ag9
ag10
ag11
ag12
ag13
ag14
ag15
ag16
ag17
ag18
ag19
ag20
ag21
ag22
ag23
ag24
ag25
ag26
ag27
ag28
ag29
ag30
ag31
ag32
ag33
ag34
ag35
ag36
ag37
ag38
ag39
ag40
ag41
ag42
ag43
ag44
ag45
ag46
ag47
ag48
ag49
ag50
ag51
ag52
ag53
ag54
ag56
ag57
ag58
ag59
ag60
ag61
ag62
ag63
ag64
ag65
ag66
ag67
ag69
ag70
ag71
ag72
ag73
ag74
ag75
ag76
ag77
ag78
ag79
ag80
ag81
ag82
ag87
ag83
ag84
ag88
ag85
ag89
ag90
ag91
ag92
ag93
ag94
ag95
ag96
ag97
ag98
ag99
aV\u0930\u094b
p109
ag100
ag101
ag102
ag103
ag104
ag105
ag106
aV\u0916\u093e
p110
aV\u092a\u0942
p111
aV\u0933\u093e
p112
aV\u0923\u0940
p113
aV\u0926\u0940
p114
ag107
aV\u0931\u094d\u092f\u093e
p115
aV\u092d
p116
aV\u0932\u093f
p117
aV\u0938\u093f
p118
aV\u090a
p119
aV\u0930\u0902
p120
aV\u092f\u094b
p121
aV\u0924\u0942
p122
aV\u0935\u094d\u092f\u093e
p123
aV\u092b
p124
aV\u092e\u0947
p125
aV\u0927\u0940
p126
aV\u0915\u093e\u0902
p127
aV\u0925
p128
aV\u092e\u094b
p129
aV\u0926\u094d\u0927
p130
aV\u0915\u093f
p131
aV\u0935\u094d\u092f
p132
aV\u0930\u094d\u0935
p133
aV\u0935\u0940
p134
aV\u092f\u0941
p135
aV\u091c\u0947
p136
aV\u0938\u094d\u0925\u093e
p137
aV\u092a\u094d\u0930\u093e
p138
a(lp139
g1
ag2
ag3
ag4
ag5
ag6
ag7
ag8
ag9
ag10
ag11
ag12
ag13
ag14
ag15
ag16
ag17
ag18
ag19
ag20
ag21
ag22
ag23
ag24
ag25
ag26
ag27
ag28
ag29
ag30
ag31
ag32
ag33
ag34
ag35
ag36
ag37
ag38
ag39
ag40
ag41
ag42
ag43
ag44
ag45
ag46
ag47
ag48
ag49
ag50
ag51
ag52
ag53
ag54
ag56
ag57
ag58
ag59
ag60
ag61
ag62
ag63
ag64
ag65
ag66
ag67
ag69
ag70
ag71
ag72
ag73
ag74
ag75
ag76
ag77
ag78
ag79
ag80
ag81
ag82
ag87
ag83
ag84
ag88
ag85
ag89
ag90
ag91
ag92
ag93
ag94
ag95
ag96
ag97
ag98
ag99
ag109
ag100
ag101
ag102
ag103
ag104
ag105
ag106
ag110
ag111
ag112
ag113
ag114
ag107
ag115
ag116
ag117
ag118
ag119
ag120
ag121
ag122
ag123
ag124
aV\u0921\u093e
p140
ag125
aV\u0908
p141
aV\u0921\u0940
p142
ag126
ag127
ag128
ag129
ag130
aV\u0932\u094b
p143
ag131
ag132
ag133
ag134
ag135
aV\u0921\u0947
p144
ag136
ag137
aV\u091c\u0940
p145
ag138
aV\u0926\u094b
p146
aV\u091f\u093e
p147
aV\u0915\u094d\u0937\u093e
p148
aV\u0920
p149
aV\u0927\u093f
p150
aV\u0915\u093f\u0902
p151
aV\u0924\u0941
p152
aV\u092c\u0902
p153
aV\u092a\u0947
p154
aV\u0936\u0947
p155
aV\u091a\u093f
p156
aV\u0905\u0902
p157
aV\u0923\u0942
p158
aV\u0938\u094d\u0935
p159
aV\u0933\u0940
p160
aV\u0926\u094d\u0930
p161
aV\u0930\u093e\u0902
p162
aV\u0928\u0902
p163
aV\u0938\u094d\u0924
p164
aV\u0915\u094d\u0924
p165
aV\u092e\u0942
p166
aV\u0917\u0947
p167
aV\u0925\u0947
p168
aV\u0928\u0941
p169
aV\u0917\u094b
p170
aV\u0926\u094d\u092f\u093e
p171
aV\u0930\u0941
p172
aV\u0917\u0941
p173
aV\u0926\u0941
p174
aV\u0917\u0940
p175
aV\u0918\u0947
p176
aV\u0911
p177
aV\u091f\u0940
p178
aV\u092a\u093f
p179
aV\u0930\u094d\u0923
p180
aV\u0937\u094d\u091f
p181
aV\u0915\u0943
p182
a(lp183
g1
ag2
ag3
ag4
ag5
ag6
ag7
ag8
ag9
ag10
ag11
ag12
ag13
ag14
ag15
ag16
ag17
ag18
ag19
ag20
ag21
ag22
ag23
ag24
ag25
ag26
ag27
ag28
ag29
ag30
ag31
ag32
ag33
ag34
ag35
ag36
ag37
ag38
ag39
ag40
ag41
ag42
ag43
ag44
ag45
ag46
ag47
ag48
ag49
ag50
ag51
ag52
ag53
ag54
ag56
ag57
ag58
ag59
ag60
ag61
ag62
ag63
ag64
ag65
ag66
ag67
ag69
ag70
ag71
ag72
ag73
ag74
ag75
ag76
ag77
ag78
ag79
ag80
ag81
ag82
ag87
ag83
ag84
ag88
ag85
ag89
ag90
ag91
ag92
ag93
ag94
ag95
ag96
ag97
ag98
ag99
ag109
ag100
ag101
ag102
ag103
ag104
ag105
ag106
ag110
ag111
ag112
ag113
ag114
ag107
ag115
ag116
ag117
ag118
ag119
ag120
ag121
ag122
ag123
ag124
ag140
ag125
ag141
ag142
ag126
ag127
ag128
ag129
ag130
ag143
ag131
ag132
ag133
ag134
ag135
ag144
ag136
ag137
ag145
ag138
ag146
ag147
ag148
ag149
ag150
ag151
ag152
ag153
ag154
ag155
ag156
ag157
ag158
ag159
ag160
ag161
ag162
ag163
ag164
ag165
ag166
ag167
ag168
ag169
ag170
ag171
aV\u0913
p184
ag172
ag173
ag174
ag175
ag176
aV\u0932\u093e\u0902
p185
ag177
aV\u0938\u094b
p186
aV\u091f\u093f
p187
ag178
ag179
ag180
aV\u0928\u094d\u092f
p188
aV\u0916\u094d\u092f\u093e
p189
ag181
aV\u0928\u093e\u0902
p190
ag182
aV\u092a\u094b
p191
aV\u0930\u094d\u092f
p192
aV\u0915\u094d\u0930\u093f
p193
aV\u0924\u0902
p194
aV\u091c\u093f
p195
aV\u092d\u0942
p196
aV\u0915\u094d\u0930
p197
aV\u0921\u093f
p198
aV\u0936\u094b
p199
aV\u092e\u0902
p200
aV\u092c\u0940
p201
aV\u0907\u0902
p202
aV\u0920\u0947
p203
aV\u0924\u094d\u0924
p204
aV\u0924\u094d\u0930\u093e
p205
aV\u092a\u0940
p206
aV\u0927\u094d\u092f
p207
aV\u0925\u093e
p208
aV\u092d\u093f
p209
aV\u0915\u094d\u0937\u0947
p210
aV\u0930\u094d\u0917
p211
aV\u0939\u094d\u092f\u093e
p212
aV\u092b\u093e
p213
aV\u0938\u094d\u092a
p214
aV\u0920\u093e
p215
aV\u0930\u094d\u092e
p216
aV\u0933\u094d\u092f\u093e
p217
aV\u0915\u0941
p218
aV\u0918\u093e
p219
aV\u092f\u0902
p220
aV\u0924\u094d\u092f
p221
aV\u091f\u0947
p222
aV\u0915\u0942
p223
aV\u0930\u094d\u0925
p224
aV\u0924\u094d\u0930\u093f
p225
aV\u0921\u0942
p226
aV\u0938\u093e\u0902
p227
aV\u0930\u094d\u092e\u093e
p228
aV\u0926\u0942
p229
aV\u0916\u0947
p230
aV\u0930\u094d\u092f\u0902
p231
aV\u0925\u0940
p232
aV\u0926\u0943
p233
aV\u0917\u093e\u0902
p234
aV\u092e\u093e\u0902
p235
aV\u091c\u094d\u091e\u093e
p236
aV\u0917\u093f
p237
aV\u0924\u0903
p238
aV\u091c\u094d\u092f\u093e
p239
aV\u0935\u0943
p240
aV\u0932\u0902
p241
aV\u0936\u093e\u0902
p242
aV\u0938\u0940
p243
aV\u0928\u094d\u092f\u093e
p244
aV\u092c\u0947
p245
aV\u091c\u094b
p246
aV\u0924\u094d
p247
aV\u0930\u094d\u0936
p248
aV\u0939\u0941
p249
aV\u0935\u0948
p250
aV\u0930\u094d\u092f\u093e
p251
aV\u0928\u094d\u0928
p252
aV\u0917\u094d\u0930
p253
aV\u0938\u094d\u0925\u093f
p254
aV\u0935\u094d\u0939\u093e
p255
aV\u0935\u0942
p256
aV\u0932\u094d\u092a
p257
a(lp258
g1
ag2
ag3
ag4
ag5
ag6
ag7
ag8
ag9
ag10
ag11
ag12
ag13
ag14
ag15
ag16
ag17
ag18
ag19
ag20
ag21
ag22
ag23
ag24
ag25
ag26
ag27
ag28
ag29
ag30
ag31
ag32
ag33
ag34
ag35
ag36
ag37
ag38
ag39
ag40
ag41
ag42
ag43
ag44
ag45
ag46
ag47
ag48
ag49
ag50
ag51
ag52
ag53
ag54
ag56
ag57
ag58
ag59
ag60
ag61
ag62
ag63
ag64
ag65
ag66
ag67
ag69
ag70
ag71
ag72
ag73
ag74
ag75
ag76
ag77
ag78
ag79
ag80
ag81
ag82
ag87
ag83
ag84
ag88
ag85
ag89
ag90
ag91
ag92
ag93
ag94
ag95
ag96
ag97
ag98
ag99
ag109
ag100
ag101
ag102
ag103
ag104
ag105
ag106
ag110
ag111
ag112
ag113
ag114
ag107
ag115
ag116
ag117
ag118
ag119
ag120
ag121
ag122
ag123
ag124
ag140
ag125
ag141
ag142
ag126
ag127
ag128
ag129
ag130
ag143
ag131
ag132
ag133
ag134
ag135
ag144
ag136
ag137
ag145
ag138
ag146
ag147
ag148
ag149
ag150
ag151
ag152
ag153
ag154
ag155
ag156
ag157
ag158
ag159
ag160
ag161
ag162
ag163
ag164
ag165
ag166
ag167
ag168
ag169
ag170
ag171
ag184
ag172
ag173
ag174
ag175
ag176
ag185
ag177
ag186
ag187
ag178
ag179
ag180
ag188
ag189
ag181
ag190
ag182
ag191
ag192
ag193
ag194
ag195
ag196
ag197
ag198
ag199
ag200
ag201
ag202
ag203
ag204
ag205
ag206
ag207
ag208
ag209
ag210
ag211
ag212
ag213
ag214
ag215
ag216
ag217
ag218
ag219
ag220
ag221
ag222
ag223
ag224
ag225
aV\u0921\u094d\u092f\u093e
p259
ag226
ag227
ag228
ag229
ag230
ag231
ag232
ag233
ag234
ag235
ag236
ag237
aV\u092f\u0942
p260
ag238
ag239
ag240
ag241
ag242
ag243
ag244
ag245
ag246
ag247
aV\u0924\u094d\u092a\u093e
p261
ag248
ag249
aV\u0916\u0902
p262
ag250
ag251
ag252
aV\u0926\u094d\u092f\u094b
p263
aV\u092a\u0948
p264
aV\u092a\u0902
p265
aV\u0935\u0902
p266
aV\u091c\u0942
p267
aV\u092c\u093e\u0902
p268
aV\u0926\u094d\u0930\u093e
p269
aV\u0926\u094d\u092f\u0941
p270
ag253
ag254
aV\u0928\u094b
p271
aV\u092c\u093f
p272
aV\u0924\u093e\u0902
p273
aV\u0922\u0947
p274
ag255
ag256
aV\u0933\u0942
p275
aV\u0922\u0940
p276
aV\u0924\u094d\u0924\u094d\u0935\u093e
p277
aV\u0924\u094d\u0935
p278
aV\u0917\u094d\u0930\u0902
p279
aV\u0930\u094d\u092e\u093f
p280
aV\u091c\u094d\u092f
p281
aV\u092a\u0943
p282
ag257
aV\u0936\u094d\u0930
p283
aV\u0915\u094d\u0924\u0940
p284
aV\u091d
p285
aV\u0915\u094d\u0937\u093f
p286
aV\u0915\u0947\u0902
p287
aV\u092f\u0940
p288
aV\u0915\u0945
p289
aV\u0935\u094d\u0939
p290
aV\u0924\u0940\u0902
p291
aV\u092c\u094b
p292
aV\u0923\u093e\u0902
p293
aV\u0937\u094d\u0920
p294
aV\u0938\u094d\u091f
p295
aV\u0936\u094d\u091a\u093f
p296
aV\u0916\u094d\u092f
p297
aV\u0914
p298
aV\u092b\u093f
p299
aV\u0916\u0940
p300
aV\u0936\u0941
p301
aV\u0937\u094d\u091f\u0940
p302
aV\u092b\u0947
p303
aV\u0920\u093f
p304
aV\u0921\u094b
p305
aV\u091f\u094b
p306
aV\u092e\u0943
p307
aV\u091a\u094c
p308
aV\u0924\u094d\u092f\u0947
p309
aV\u0927\u0942
p310
aV\u092a\u093e\u0902
p311
aV\u092a\u094d\u0924
p312
aV\u0916\u094b
p313
aV\u0930\u094d\u0937
p314
aV\u0938\u094d\u0935\u093e
p315
aV\u0924\u094d\u0930\u0947
p316
aV\u0938\u094d\u0924\u094d\u0930
p317
aV\u0915\u0902
p318
aV\u0937\u093e
p319
aV\u0938\u094d\u0924\u093e
p320
aV\u0924\u094d\u0924\u0940
p321
aV\u0924\u094d\u092e
p322
aV\u0939\u0942
p323
aV\u0938\u0947\u0902
p324
aV\u0928\u094d\u0938
p325
aV\u0927\u094d\u092f\u093e
p326
aV\u0936\u0948
p327
aV\u0936\u094d\u092f
p328
aV\u0937\u094d\u0915
p329
aV\u0932\u0942
p330
aV\u0924\u094d\u0924\u094d\u0935
p331
aV\u0938\u094d\u0924\u0942
p332
aV\u0924\u094d\u0924\u093e
p333
aV\u0930\u094d\u091a
p334
aV\u0930\u094d\u0917\u093e
p335
aV\u091a\u093e\u0902
p336
aV\u0920\u094d\u092f\u093e
p337
aV\u0927\u0941
p338
aV\u0906\u0902
p339
aV\u0924\u094d\u092a
p340
aV\u0926\u094d\u092f
p341
aV\u092d\u0947
p342
aV\u0909\u0902
p343
aV\u091c\u0941
p344
aV\u0915\u0949
p345
aV\u092d\u094b
p346
aV\u092b\u0941
p347
aV\u092c\u093f\u0902
p348
aV\u0926\u0902
p349
aV\u0930\u094d\u0935\u0940
p350
aV\u0930\u094d\u0924
p351
aV\u0939\u093f\u0902
p352
aV\u0915\u094d\u092f\u093e
p353
aV\u0972
p354
aV\u0937\u094d\u091f\u094d\u0930\u0940
p355
aV\u0938\u094d\u0925\u0947
p356
aV\u092c\u0942
p357
aV\u0926\u094d\u0927\u093e
p358
aV\u0937\u094d\u0923
p359
aV\u0930\u094d\u0935\u093e\u0902
p360
aV\u092d\u094d\u092f\u093e
p361
aV\u0928\u094d\u0939\u0940
p362
aV\u0917\u0902
p363
aV\u0917\u094d\u092f
p364
aV\u092c\u094d\u0930\u093f
p365
aV\u0922\u093e
p366
aV\u0935\u094d\u0939\u093f
p367
aV\u092e\u0945
p368
aV\u0926\u094d\u0935\u093e
p369
aV\u0915\u094d\u092f
p370
aV\u0932\u094d\u092f
p371
aV\u0936\u094d\u0935
p372
aV\u092c\u0941
p373
aV\u0938\u094d\u0935\u0940
p374
aV\u0925\u094b
p375
aV\u0923\u0941
p376
aV\u0924\u094d\u0930\u093e\u0902
p377
aV\u0930\u094d\u0915
p378
aV\u0924\u094d\u0935\u093e
p379
aV\u0935\u093e\u0902
p380
aV\u091a\u0902
p381
aV\u091a\u094d\u091a
p382
aV\u0910
p383
aV\u0917\u094d\u0930\u093e
p384
aV\u0923\u094d\u092f\u093e\u0902
p385
aV\u0927\u094b
p386
aV\u092a\u094d\u0930\u0947
p387
aV\u091c\u0902
p388
aV\u0932\u094d\u0932\u0947
p389
aV\u0925\u093f
p390
aV\u091f\u093e\u0902
p391
aV\u0928\u0948
p392
aV\u091c\u093e\u0902
p393
aV\u0938\u094d\u0924\u094d\u0930\u093e
p394
aV\u0905\u0901
p395
aV\u0931\u094d\u092f\u093e\u0902
p396
aV\u0938\u094d\u0924\u094d\u0930\u0940
p397
aV\u0928\u094d\u0939\u093e
p398
aV\u092c\u094d\u0927
p399
aV\u0930\u094d\u092d
p400
aV\u0937\u093f
p401
aV\u0915\u094d\u0937\u094d\u092e
p402
aV\u0924\u094d\u0938
p403
aV\u0937\u0947
p404
aV\u0915\u094d\u0924\u093f
p405
aV\u0938\u093f\u0902
p406
aV\u0917\u094d\u0930\u0940
p407
aV\u0926\u094d\u0926
p408
aV\u0937\u093e\u0902
p409
aV\u0930\u094d\u091c\u093e
p410
aV\u0930\u094d\u0925\u093e
p411
aV\u0938\u094d\u0924\u0940
p412
aV\u0938\u094d\u0915\u0943
p413
aV\u0939\u094d\u092f\u093e\u0902
p414
aV\u0926\u094d\u0927\u093e\u0902
p415
atp416
.